; Function Attrs: mustprogress nounwind uwtable
define internal fastcc void @_ZN12_GLOBAL__N_128CloneTypeIIStmtDataCollectorIN4llvm3MD5EE20VisitObjCAtCatchStmtIvEEvPKN5clang15ObjCAtCatchStmtE(ptr noundef nonnull readonly align 8 captures(none) dereferenceable(16) %0, ptr noundef %1) unnamed_addr #1 align 2 {
  %3 = alloca i8, align 1
  %4 = getelementptr inbounds nuw i8, ptr %1, i64 8
  %5 = load ptr, ptr %4, align 8
  %6 = icmp eq ptr %5, null
  %7 = zext i1 %6 to i8
  %8 = getelementptr inbounds nuw i8, ptr %0, i64 8
  %.val = load ptr, ptr %8, align 8
  call void @llvm.lifetime.start.p0(i64 1, ptr nonnull %3)
  store i8 %7, ptr %3, align 1
  call void @_ZN4llvm3MD56updateENS_9StringRefE(ptr noundef nonnull align 4 dereferenceable(152) %.val, ptr nonnull %3, i64 1) #21
  call void @llvm.lifetime.end.p0(i64 1, ptr nonnull %3)
  call fastcc void @_ZN12_GLOBAL__N_128CloneTypeIIStmtDataCollectorIN4llvm3MD5EE9VisitStmtIvEEvPKN5clang4StmtE(ptr noundef nonnull readonly align 8 dereferenceable(16) %0, ptr noundef nonnull %1)
  ret void
}